target datalayout = "e-m:e-p270:32:32-p271:32:32-p272:64:64-i64:64-i128:128-f80:128-n8:16:32:64-S128"
target triple = "x86_64-pc-linux-gnu"

%"class.std::__cxx11::basic_string" = type { %"struct.std::__cxx11::basic_string<char>::_Alloc_hider", i64, %union.anon }
%"struct.std::__cxx11::basic_string<char>::_Alloc_hider" = type { ptr }
%union.anon = type { i64, [8 x i8] }
%"class.llvm::SmallVectorImpl.1" = type { %"class.llvm::SmallVectorTemplateBase.2" }
%"class.llvm::SmallVectorTemplateBase.2" = type { %"class.llvm::SmallVectorTemplateCommon.3" }
%"class.llvm::SmallVectorTemplateCommon.3" = type { %"class.llvm::SmallVectorBase" }
%"class.llvm::SmallVectorBase" = type { ptr, i32, i32 }
%"class.llvm::Triple" = type { %"class.std::__cxx11::basic_string", i32, i32, i32, i32, i32, i32 }
%"class.clang::driver::ToolChain" = type { ptr, ptr, %"class.llvm::Triple", ptr, ptr, i32, i32, %"class.llvm::SmallVector.24", %"class.llvm::SmallVector.24", %"class.llvm::SmallVector.24", %"class.std::unique_ptr.94", %"class.std::unique_ptr.94", %"class.std::unique_ptr.94", %"class.std::unique_ptr.94", %"class.std::unique_ptr.94", %"class.std::unique_ptr.94", %"class.std::unique_ptr.94", %"class.std::unique_ptr.94", %"class.std::unique_ptr.94", i8, %"class.std::unique_ptr.102", %"class.llvm::Triple", %"class.std::optional", %"class.std::optional.110", %"class.std::optional.118", %"class.clang::driver::MultilibSet", %"class.llvm::SmallVector.136" }
%"class.llvm::SmallVector.24" = type { %"class.llvm::SmallVectorImpl.1", %"struct.llvm::SmallVectorStorage.25" }
%"struct.llvm::SmallVectorStorage.25" = type { [512 x i8] }
%"class.std::unique_ptr.94" = type { %"struct.std::__uniq_ptr_data.95" }
%"struct.std::__uniq_ptr_data.95" = type { %"class.std::__uniq_ptr_impl.96" }
%"class.std::__uniq_ptr_impl.96" = type { %"class.std::tuple.97" }
%"class.std::tuple.97" = type { %"struct.std::_Tuple_impl.98" }
%"struct.std::_Tuple_impl.98" = type { %"struct.std::_Head_base.101" }
%"struct.std::_Head_base.101" = type { ptr }
%"class.std::unique_ptr.102" = type { %"struct.std::__uniq_ptr_data.103" }
%"struct.std::__uniq_ptr_data.103" = type { %"class.std::__uniq_ptr_impl.104" }
%"class.std::__uniq_ptr_impl.104" = type { %"class.std::tuple.105" }
%"class.std::tuple.105" = type { %"struct.std::_Tuple_impl.106" }
%"struct.std::_Tuple_impl.106" = type { %"struct.std::_Head_base.109" }
%"struct.std::_Head_base.109" = type { ptr }
%"class.std::optional" = type { %"struct.std::_Optional_base" }
%"struct.std::_Optional_base" = type { %"struct.std::_Optional_payload" }
%"struct.std::_Optional_payload" = type { %"struct.std::_Optional_payload_base.base", [3 x i8] }
%"struct.std::_Optional_payload_base.base" = type <{ %"union.std::_Optional_payload_base<clang::driver::ToolChain::CXXStdlibType>::_Storage", i8 }>
%"union.std::_Optional_payload_base<clang::driver::ToolChain::CXXStdlibType>::_Storage" = type { i32 }
%"class.std::optional.110" = type { %"struct.std::_Optional_base.111" }
%"struct.std::_Optional_base.111" = type { %"struct.std::_Optional_payload.113" }
%"struct.std::_Optional_payload.113" = type { %"struct.std::_Optional_payload_base.base.115", [3 x i8] }
%"struct.std::_Optional_payload_base.base.115" = type <{ %"union.std::_Optional_payload_base<clang::driver::ToolChain::RuntimeLibType>::_Storage", i8 }>
%"union.std::_Optional_payload_base<clang::driver::ToolChain::RuntimeLibType>::_Storage" = type { i32 }
%"class.std::optional.118" = type { %"struct.std::_Optional_base.119" }
%"struct.std::_Optional_base.119" = type { %"struct.std::_Optional_payload.121" }
%"struct.std::_Optional_payload.121" = type { %"struct.std::_Optional_payload_base.base.123", [3 x i8] }
%"struct.std::_Optional_payload_base.base.123" = type <{ %"union.std::_Optional_payload_base<clang::driver::ToolChain::UnwindLibType>::_Storage", i8 }>
%"union.std::_Optional_payload_base<clang::driver::ToolChain::UnwindLibType>::_Storage" = type { i32 }
%"class.clang::driver::MultilibSet" = type { %"class.std::vector.126", %"class.std::vector.131", %"class.std::function", %"class.std::function" }
%"class.std::vector.126" = type { %"struct.std::_Vector_base.127" }
%"struct.std::_Vector_base.127" = type { %"struct.std::_Vector_base<clang::driver::Multilib, std::allocator<clang::driver::Multilib>>::_Vector_impl" }
%"struct.std::_Vector_base<clang::driver::Multilib, std::allocator<clang::driver::Multilib>>::_Vector_impl" = type { %"struct.std::_Vector_base<clang::driver::Multilib, std::allocator<clang::driver::Multilib>>::_Vector_impl_data" }
%"struct.std::_Vector_base<clang::driver::Multilib, std::allocator<clang::driver::Multilib>>::_Vector_impl_data" = type { ptr, ptr, ptr }
%"class.std::vector.131" = type { %"struct.std::_Vector_base.132" }
%"struct.std::_Vector_base.132" = type { %"struct.std::_Vector_base<clang::driver::MultilibSet::FlagMatcher, std::allocator<clang::driver::MultilibSet::FlagMatcher>>::_Vector_impl" }
%"struct.std::_Vector_base<clang::driver::MultilibSet::FlagMatcher, std::allocator<clang::driver::MultilibSet::FlagMatcher>>::_Vector_impl" = type { %"struct.std::_Vector_base<clang::driver::MultilibSet::FlagMatcher, std::allocator<clang::driver::MultilibSet::FlagMatcher>>::_Vector_impl_data" }
%"struct.std::_Vector_base<clang::driver::MultilibSet::FlagMatcher, std::allocator<clang::driver::MultilibSet::FlagMatcher>>::_Vector_impl_data" = type { ptr, ptr, ptr }
%"class.std::function" = type { %"class.std::_Function_base", ptr }
%"class.std::_Function_base" = type { %"union.std::_Any_data", ptr }
%"union.std::_Any_data" = type { %"union.std::_Nocopy_types" }
%"union.std::_Nocopy_types" = type { { i64, i64 } }
%"class.llvm::SmallVector.136" = type { %"class.llvm::SmallVectorImpl.137", %"struct.llvm::SmallVectorStorage.140" }
%"class.llvm::SmallVectorImpl.137" = type { %"class.llvm::SmallVectorTemplateBase.138" }
%"class.llvm::SmallVectorTemplateBase.138" = type { %"class.llvm::SmallVectorTemplateCommon.139" }
%"class.llvm::SmallVectorTemplateCommon.139" = type { %"class.llvm::SmallVectorBase" }
%"struct.llvm::SmallVectorStorage.140" = type { [192 x i8] }

@.str.114 = private unnamed_addr constant [3 x i8] c"-z\00", align 1
@.str.115 = private unnamed_addr constant [7 x i8] c"ignore\00", align 1
@.str.116 = private unnamed_addr constant [7 x i8] c"record\00", align 1
@.str.117 = private unnamed_addr constant [12 x i8] c"--as-needed\00", align 1
@.str.118 = private unnamed_addr constant [15 x i8] c"--no-as-needed\00", align 1

; Function Attrs: mustprogress nounwind uwtable
define linkonce_odr hidden noundef ptr @_ZNK4llvm25SmallVectorTemplateCommonIPKcvE10getFirstElEv(ptr noundef nonnull align 8 dereferenceable(16) %0) #0 comdat align 2 {
  %2 = alloca ptr, align 8
  store ptr %0, ptr %2, align 8
  %3 = load ptr, ptr %2, align 8
  %4 = getelementptr inbounds i8, ptr %3, i64 16
  ret ptr %4
}

; Function Attrs: mustprogress nounwind uwtable
define linkonce_odr hidden void @_ZN4llvm25SmallVectorTemplateCommonIPKcvE8grow_podEmm(ptr noundef nonnull align 8 dereferenceable(16) %0, i64 noundef %1, i64 noundef %2) #0 comdat align 2 {
  %4 = alloca ptr, align 8
  %5 = alloca i64, align 8
  %6 = alloca i64, align 8
  store ptr %0, ptr %4, align 8
  store i64 %1, ptr %5, align 8
  store i64 %2, ptr %6, align 8
  %7 = load ptr, ptr %4, align 8
  %8 = call noundef ptr @_ZNK4llvm25SmallVectorTemplateCommonIPKcvE10getFirstElEv(ptr noundef nonnull align 8 dereferenceable(16) %7)
  %9 = load i64, ptr %5, align 8
  %10 = load i64, ptr %6, align 8
  call void @_ZN4llvm15SmallVectorBaseIjE8grow_podEPvmm(ptr noundef nonnull align 8 dereferenceable(16) %7, ptr noundef %8, i64 noundef %9, i64 noundef %10)
  ret void
}

; Function Attrs: mustprogress nounwind uwtable
define linkonce_odr hidden void @_ZN4llvm23SmallVectorTemplateBaseIPKcLb1EE4growEm(ptr noundef nonnull align 8 dereferenceable(16) %0, i64 noundef %1) #0 comdat align 2 {
  %3 = alloca ptr, align 8
  %4 = alloca i64, align 8
  store ptr %0, ptr %3, align 8
  store i64 %1, ptr %4, align 8
  %5 = load ptr, ptr %3, align 8
  %6 = load i64, ptr %4, align 8
  call void @_ZN4llvm25SmallVectorTemplateCommonIPKcvE8grow_podEmm(ptr noundef nonnull align 8 dereferenceable(16) %5, i64 noundef %6, i64 noundef 8)
  ret void
}

; Function Attrs: mustprogress nounwind uwtable
define linkonce_odr hidden noundef ptr @_ZN4llvm25SmallVectorTemplateCommonIPKcvE5beginEv(ptr noundef nonnull align 8 dereferenceable(16) %0) #0 comdat align 2 {
  %2 = alloca ptr, align 8
  store ptr %0, ptr %2, align 8
  %3 = load ptr, ptr %2, align 8
  %4 = getelementptr inbounds nuw %"class.llvm::SmallVectorBase", ptr %3, i32 0, i32 0
  %5 = load ptr, ptr %4, align 8
  ret ptr %5
}

; Function Attrs: mustprogress nounwind uwtable
define linkonce_odr hidden noundef ptr @_ZN4llvm25SmallVectorTemplateCommonIPKcvE32reserveForParamAndGetAddressImplINS_23SmallVectorTemplateBaseIS2_Lb1EEEEEPKS2_PT_RS7_m(ptr noundef %0, ptr noundef nonnull align 8 dereferenceable(8) %1, i64 noundef %2) #0 comdat align 2 {
  %4 = alloca ptr, align 8
  %5 = alloca ptr, align 8
  %6 = alloca ptr, align 8
  %7 = alloca i64, align 8
  %8 = alloca i64, align 8
  %9 = alloca i8, align 1
  %10 = alloca i64, align 8
  store ptr %0, ptr %5, align 8
  store ptr %1, ptr %6, align 8
  store i64 %2, ptr %7, align 8
  %11 = load ptr, ptr %5, align 8
  %12 = call noundef i64 @_ZNK4llvm15SmallVectorBaseIjE4sizeEv(ptr noundef nonnull align 8 dereferenceable(16) %11)
  %13 = load i64, ptr %7, align 8
  %14 = add i64 %12, %13
  store i64 %14, ptr %8, align 8
  %15 = load i64, ptr %8, align 8
  %16 = load ptr, ptr %5, align 8
  %17 = call noundef i64 @_ZNK4llvm15SmallVectorBaseIjE8capacityEv(ptr noundef nonnull align 8 dereferenceable(16) %16)
  %18 = icmp ule i64 %15, %17
  br i1 %18, label %19, label %21

19:                                               ; preds = %3
  %20 = load ptr, ptr %6, align 8
  store ptr %20, ptr %4, align 8
  br label %35

21:                                               ; preds = %3
  store i8 0, ptr %9, align 1
  store i64 -1, ptr %10, align 8
  %22 = load ptr, ptr %5, align 8
  %23 = load i64, ptr %8, align 8
  call void @_ZN4llvm23SmallVectorTemplateBaseIPKcLb1EE4growEm(ptr noundef nonnull align 8 dereferenceable(16) %22, i64 noundef %23)
  %24 = load i8, ptr %9, align 1
  %25 = trunc i8 %24 to i1
  br i1 %25, label %26, label %31

26:                                               ; preds = %21
  %27 = load ptr, ptr %5, align 8
  %28 = call noundef ptr @_ZN4llvm25SmallVectorTemplateCommonIPKcvE5beginEv(ptr noundef nonnull align 8 dereferenceable(16) %27)
  %29 = load i64, ptr %10, align 8
  %30 = getelementptr inbounds ptr, ptr %28, i64 %29
  br label %33

31:                                               ; preds = %21
  %32 = load ptr, ptr %6, align 8
  br label %33

33:                                               ; preds = %31, %26
  %34 = phi ptr [ %30, %26 ], [ %32, %31 ]
  store ptr %34, ptr %4, align 8
  br label %35

35:                                               ; preds = %33, %19
  %36 = load ptr, ptr %4, align 8
  ret ptr %36
}

; Function Attrs: mustprogress nounwind uwtable
define linkonce_odr hidden noundef ptr @_ZN4llvm25SmallVectorTemplateCommonIPKcvE3endEv(ptr noundef nonnull align 8 dereferenceable(16) %0) #0 comdat align 2 {
  %2 = alloca ptr, align 8
  store ptr %0, ptr %2, align 8
  %3 = load ptr, ptr %2, align 8
  %4 = call noundef ptr @_ZN4llvm25SmallVectorTemplateCommonIPKcvE5beginEv(ptr noundef nonnull align 8 dereferenceable(16) %3)
  %5 = call noundef i64 @_ZNK4llvm15SmallVectorBaseIjE4sizeEv(ptr noundef nonnull align 8 dereferenceable(16) %3)
  %6 = getelementptr inbounds ptr, ptr %4, i64 %5
  ret ptr %6
}

; Function Attrs: mustprogress nounwind uwtable
define linkonce_odr hidden noundef ptr @_ZN4llvm23SmallVectorTemplateBaseIPKcLb1EE28reserveForParamAndGetAddressERS2_m(ptr noundef nonnull align 8 dereferenceable(16) %0, ptr noundef nonnull align 8 dereferenceable(8) %1, i64 noundef %2) #0 comdat align 2 {
  %4 = alloca ptr, align 8
  %5 = alloca ptr, align 8
  %6 = alloca i64, align 8
  store ptr %0, ptr %4, align 8
  store ptr %1, ptr %5, align 8
  store i64 %2, ptr %6, align 8
  %7 = load ptr, ptr %4, align 8
  %8 = load ptr, ptr %5, align 8
  %9 = load i64, ptr %6, align 8
  %10 = call noundef ptr @_ZN4llvm25SmallVectorTemplateCommonIPKcvE32reserveForParamAndGetAddressImplINS_23SmallVectorTemplateBaseIS2_Lb1EEEEEPKS2_PT_RS7_m(ptr noundef %7, ptr noundef nonnull align 8 dereferenceable(8) %8, i64 noundef %9)
  ret ptr %10
}

; Function Attrs: mustprogress nounwind uwtable
define linkonce_odr hidden noundef i32 @_ZNK4llvm6Triple5getOSEv(ptr noundef nonnull align 8 dereferenceable(56) %0) #0 comdat align 2 {
  %2 = alloca ptr, align 8
  store ptr %0, ptr %2, align 8
  %3 = load ptr, ptr %2, align 8
  %4 = getelementptr inbounds nuw %"class.llvm::Triple", ptr %3, i32 0, i32 4
  %5 = load i32, ptr %4, align 4
  ret i32 %5
}

; Function Attrs: mustprogress nounwind uwtable
define linkonce_odr hidden void @_ZN4llvm23SmallVectorTemplateBaseIPKcLb1EE9push_backES2_(ptr noundef nonnull align 8 dereferenceable(16) %0, ptr noundef %1) #0 comdat align 2 {
  %3 = alloca ptr, align 8
  %4 = alloca ptr, align 8
  %5 = alloca ptr, align 8
  store ptr %0, ptr %3, align 8
  store ptr %1, ptr %4, align 8
  %6 = load ptr, ptr %3, align 8
  %7 = call noundef ptr @_ZN4llvm23SmallVectorTemplateBaseIPKcLb1EE28reserveForParamAndGetAddressERS2_m(ptr noundef nonnull align 8 dereferenceable(16) %6, ptr noundef nonnull align 8 dereferenceable(8) %4, i64 noundef 1)
  store ptr %7, ptr %5, align 8
  %8 = call noundef ptr @_ZN4llvm25SmallVectorTemplateCommonIPKcvE3endEv(ptr noundef nonnull align 8 dereferenceable(16) %6)
  %9 = load ptr, ptr %5, align 8
  call void @llvm.memcpy.p0.p0.i64(ptr align 1 %8, ptr align 8 %9, i64 8, i1 false)
  %10 = call noundef i64 @_ZNK4llvm15SmallVectorBaseIjE4sizeEv(ptr noundef nonnull align 8 dereferenceable(16) %6)
  %11 = add i64 %10, 1
  call void @_ZN4llvm15SmallVectorBaseIjE8set_sizeEm(ptr noundef nonnull align 8 dereferenceable(16) %6, i64 noundef %11)
  ret void
}

; Function Attrs: mustprogress nounwind uwtable
define linkonce_odr hidden noundef zeroext i1 @_ZNK4llvm6Triple11isOSSolarisEv(ptr noundef nonnull align 8 dereferenceable(56) %0) #0 comdat align 2 {
  %2 = alloca ptr, align 8
  store ptr %0, ptr %2, align 8
  %3 = load ptr, ptr %2, align 8
  %4 = call noundef i32 @_ZNK4llvm6Triple5getOSEv(ptr noundef nonnull align 8 dereferenceable(56) %3)
  %5 = icmp eq i32 %4, 12
  ret i1 %5
}

; Function Attrs: mustprogress nounwind uwtable
define linkonce_odr hidden noundef nonnull align 8 dereferenceable(56) ptr @_ZNK5clang6driver9ToolChain9getTripleEv(ptr noundef nonnull align 8 dereferenceable(2168) %0) #0 comdat align 2 {
  %2 = alloca ptr, align 8
  store ptr %0, ptr %2, align 8
  %3 = load ptr, ptr %2, align 8
  %4 = getelementptr inbounds nuw %"class.clang::driver::ToolChain", ptr %3, i32 0, i32 2
  ret ptr %4
}

; Function Attrs: mustprogress nounwind uwtable
define dso_local void @_ZN5clang6driver5tools17addAsNeededOptionERKNS0_9ToolChainERKN4llvm3opt7ArgListERNS5_11SmallVectorIPKcLj16EEEb(ptr noundef nonnull align 8 dereferenceable(2168) %0, ptr noundef nonnull align 8 dereferenceable(176) %1, ptr noundef nonnull align 8 dereferenceable(144) %2, i1 noundef zeroext %3) #0 {
  %5 = alloca ptr, align 8
  %6 = alloca ptr, align 8
  %7 = alloca ptr, align 8
  %8 = alloca i8, align 1
  %9 = alloca i8, align 1
  store ptr %0, ptr %5, align 8
  store ptr %1, ptr %6, align 8
  store ptr %2, ptr %7, align 8
  %10 = zext i1 %3 to i8
  store i8 %10, ptr %8, align 1
  %11 = load ptr, ptr %5, align 8
  %12 = load ptr, ptr %6, align 8
  %13 = call noundef zeroext i1 @_ZN5clang6driver5tools7solaris13isLinkerGnuLdERKNS0_9ToolChainERKN4llvm3opt7ArgListE(ptr noundef nonnull align 8 dereferenceable(2168) %11, ptr noundef nonnull align 8 dereferenceable(176) %12)
  %14 = zext i1 %13 to i8
  store i8 %14, ptr %9, align 1
  %15 = load ptr, ptr %5, align 8
  %16 = call noundef nonnull align 8 dereferenceable(56) ptr @_ZNK5clang6driver9ToolChain9getTripleEv(ptr noundef nonnull align 8 dereferenceable(2168) %15)
  %17 = call noundef zeroext i1 @_ZNK4llvm6Triple11isOSSolarisEv(ptr noundef nonnull align 8 dereferenceable(56) %16)
  br i1 %17, label %18, label %31

18:                                               ; preds = %4
  %19 = load i8, ptr %9, align 1
  %20 = trunc i8 %19 to i1
  br i1 %20, label %31, label %21

21:                                               ; preds = %18
  %22 = load ptr, ptr %7, align 8
  call void @_ZN4llvm23SmallVectorTemplateBaseIPKcLb1EE9push_backES2_(ptr noundef nonnull align 8 dereferenceable(16) %22, ptr noundef @.str.114)
  %23 = load ptr, ptr %7, align 8
  %24 = load i8, ptr %8, align 1
  %25 = trunc i8 %24 to i1
  br i1 %25, label %26, label %27

26:                                               ; preds = %21
  br label %28

27:                                               ; preds = %21
  br label %28

28:                                               ; preds = %27, %26
  %29 = phi ptr [ @.str.115, %26 ], [ @.str.116, %27 ]
  %30 = getelementptr inbounds [7 x i8], ptr %29, i64 0, i64 0
  call void @_ZN4llvm23SmallVectorTemplateBaseIPKcLb1EE9push_backES2_(ptr noundef nonnull align 8 dereferenceable(16) %23, ptr noundef %30)
  br label %36

31:                                               ; preds = %18, %4
  %32 = load ptr, ptr %7, align 8
  %33 = load i8, ptr %8, align 1
  %34 = trunc i8 %33 to i1
  %35 = select i1 %34, ptr @.str.117, ptr @.str.118
  call void @_ZN4llvm23SmallVectorTemplateBaseIPKcLb1EE9push_backES2_(ptr noundef nonnull align 8 dereferenceable(16) %32, ptr noundef %35)
  br label %36

36:                                               ; preds = %31, %28
  ret void
}