; Function Attrs: mustprogress nounwind uwtable
define dso_local void @_ZN5clang6driver5tools17addAsNeededOptionERKNS0_9ToolChainERKN4llvm3opt7ArgListERNS5_11SmallVectorIPKcLj16EEEb(ptr noundef nonnull align 8 dereferenceable(2168) %0, ptr noundef nonnull align 8 dereferenceable(176) %1, ptr noundef nonnull align 8 dereferenceable(144) %2, i1 noundef zeroext %3) local_unnamed_addr #0 {
  %5 = tail call noundef zeroext i1 @_ZN5clang6driver5tools7solaris13isLinkerGnuLdERKNS0_9ToolChainERKN4llvm3opt7ArgListE(ptr noundef nonnull align 8 dereferenceable(2168) %0, ptr noundef nonnull align 8 dereferenceable(176) %1) #21
  %6 = getelementptr inbounds nuw i8, ptr %0, i64 60
  %7 = load i32, ptr %6, align 4
  %8 = icmp ne i32 %7, 12
  %brmerge = or i1 %5, %8
  %9 = tail call noundef i64 @_ZNK4llvm15SmallVectorBaseIjE4sizeEv(ptr noundef nonnull align 8 dereferenceable(16) %2) #21
  %10 = add i64 %9, 1
  %11 = tail call noundef i64 @_ZNK4llvm15SmallVectorBaseIjE8capacityEv(ptr noundef nonnull align 8 dereferenceable(16) %2) #21
  %.not.i.i.i10 = icmp ugt i64 %10, %11
  br i1 %brmerge, label %29, label %12

12:                                               ; preds = %4
  br i1 %.not.i.i.i10, label %13, label %_ZN4llvm23SmallVectorTemplateBaseIPKcLb1EE9push_backES2_.exit

13:                                               ; preds = %12
  %14 = getelementptr inbounds nuw i8, ptr %2, i64 16
  tail call void @_ZN4llvm15SmallVectorBaseIjE8grow_podEPvmm(ptr noundef nonnull align 8 dereferenceable(16) %2, ptr noundef nonnull %14, i64 noundef %10, i64 noundef 8) #21
  br label %_ZN4llvm23SmallVectorTemplateBaseIPKcLb1EE9push_backES2_.exit

_ZN4llvm23SmallVectorTemplateBaseIPKcLb1EE9push_backES2_.exit: ; preds = %12, %13
  %15 = load ptr, ptr %2, align 8
  %16 = tail call noundef i64 @_ZNK4llvm15SmallVectorBaseIjE4sizeEv(ptr noundef nonnull align 8 dereferenceable(16) %2) #21
  %17 = getelementptr inbounds ptr, ptr %15, i64 %16
  store i64 ptrtoint (ptr @.str.114 to i64), ptr %17, align 1
  %18 = tail call noundef i64 @_ZNK4llvm15SmallVectorBaseIjE4sizeEv(ptr noundef nonnull align 8 dereferenceable(16) %2) #21
  %19 = add i64 %18, 1
  tail call void @_ZN4llvm15SmallVectorBaseIjE8set_sizeEm(ptr noundef nonnull align 8 dereferenceable(16) %2, i64 noundef %19) #21
  %20 = tail call noundef i64 @_ZNK4llvm15SmallVectorBaseIjE4sizeEv(ptr noundef nonnull align 8 dereferenceable(16) %2) #21
  %21 = add i64 %20, 1
  %22 = tail call noundef i64 @_ZNK4llvm15SmallVectorBaseIjE8capacityEv(ptr noundef nonnull align 8 dereferenceable(16) %2) #21
  %.not.i.i.i8 = icmp ugt i64 %21, %22
  br i1 %.not.i.i.i8, label %23, label %_ZN4llvm23SmallVectorTemplateBaseIPKcLb1EE9push_backES2_.exit9

23:                                               ; preds = %_ZN4llvm23SmallVectorTemplateBaseIPKcLb1EE9push_backES2_.exit
  %24 = getelementptr inbounds nuw i8, ptr %2, i64 16
  tail call void @_ZN4llvm15SmallVectorBaseIjE8grow_podEPvmm(ptr noundef nonnull align 8 dereferenceable(16) %2, ptr noundef nonnull %24, i64 noundef %21, i64 noundef 8) #21
  br label %_ZN4llvm23SmallVectorTemplateBaseIPKcLb1EE9push_backES2_.exit9

_ZN4llvm23SmallVectorTemplateBaseIPKcLb1EE9push_backES2_.exit9: ; preds = %_ZN4llvm23SmallVectorTemplateBaseIPKcLb1EE9push_backES2_.exit, %23
  %25 = load ptr, ptr %2, align 8
  %26 = tail call noundef i64 @_ZNK4llvm15SmallVectorBaseIjE4sizeEv(ptr noundef nonnull align 8 dereferenceable(16) %2) #21
  %27 = getelementptr inbounds ptr, ptr %25, i64 %26
  %28 = select i1 %3, i64 ptrtoint (ptr @.str.115 to i64), i64 ptrtoint (ptr @.str.116 to i64)
  store i64 %28, ptr %27, align 1
  br label %36

29:                                               ; preds = %4
  br i1 %.not.i.i.i10, label %30, label %_ZN4llvm23SmallVectorTemplateBaseIPKcLb1EE9push_backES2_.exit11

30:                                               ; preds = %29
  %31 = getelementptr inbounds nuw i8, ptr %2, i64 16
  tail call void @_ZN4llvm15SmallVectorBaseIjE8grow_podEPvmm(ptr noundef nonnull align 8 dereferenceable(16) %2, ptr noundef nonnull %31, i64 noundef %10, i64 noundef 8) #21
  br label %_ZN4llvm23SmallVectorTemplateBaseIPKcLb1EE9push_backES2_.exit11

_ZN4llvm23SmallVectorTemplateBaseIPKcLb1EE9push_backES2_.exit11: ; preds = %29, %30
  %32 = load ptr, ptr %2, align 8
  %33 = tail call noundef i64 @_ZNK4llvm15SmallVectorBaseIjE4sizeEv(ptr noundef nonnull align 8 dereferenceable(16) %2) #21
  %34 = getelementptr inbounds ptr, ptr %32, i64 %33
  %35 = select i1 %3, i64 ptrtoint (ptr @.str.117 to i64), i64 ptrtoint (ptr @.str.118 to i64)
  store i64 %35, ptr %34, align 1
  br label %36

36:                                               ; preds = %_ZN4llvm23SmallVectorTemplateBaseIPKcLb1EE9push_backES2_.exit11, %_ZN4llvm23SmallVectorTemplateBaseIPKcLb1EE9push_backES2_.exit9
  %37 = tail call noundef i64 @_ZNK4llvm15SmallVectorBaseIjE4sizeEv(ptr noundef nonnull align 8 dereferenceable(16) %2) #21
  %38 = add i64 %37, 1
  tail call void @_ZN4llvm15SmallVectorBaseIjE8set_sizeEm(ptr noundef nonnull align 8 dereferenceable(16) %2, i64 noundef %38) #21
  ret void
}